target datalayout = "e-m:e-p270:32:32-p271:32:32-p272:64:64-i64:64-i128:128-f80:128-n8:16:32:64-S128"
target triple = "x86_64-pc-linux-gnu"

%struct.CK_FUNCTION_LIST = type { %struct.CK_VERSION, ptr, ptr, ptr, ptr, ptr, ptr, ptr, ptr, ptr, ptr, ptr, ptr, ptr, ptr, ptr, ptr, ptr, ptr, ptr, ptr, ptr, ptr, ptr, ptr, ptr, ptr, ptr, ptr, ptr, ptr, ptr, ptr, ptr, ptr, ptr, ptr, ptr, ptr, ptr, ptr, ptr, ptr, ptr, ptr, ptr, ptr, ptr, ptr, ptr, ptr, ptr, ptr, ptr, ptr, ptr, ptr, ptr, ptr, ptr, ptr, ptr, ptr, ptr, ptr, ptr, ptr, ptr, ptr }
%struct.CK_VERSION = type { i8, i8 }

; Function Attrs: nounwind uwtable
define ptr @Java_sun_security_pkcs11_wrapper_PKCS11_C_1FindObjects(ptr noundef %0, ptr noundef %1, i64 noundef %2, i64 noundef %3) #0 {
  %5 = alloca ptr, align 8
  %6 = alloca ptr, align 8
  %7 = alloca ptr, align 8
  %8 = alloca i64, align 8
  %9 = alloca i64, align 8
  %10 = alloca i64, align 8
  %11 = alloca i64, align 8
  %12 = alloca i64, align 8
  %13 = alloca ptr, align 8
  %14 = alloca i64, align 8
  %15 = alloca ptr, align 8
  %16 = alloca ptr, align 8
  store ptr %0, ptr %6, align 8
  store ptr %1, ptr %7, align 8
  store i64 %2, ptr %8, align 8
  store i64 %3, ptr %9, align 8
  store ptr null, ptr %15, align 8
  %17 = load ptr, ptr %6, align 8
  %18 = load ptr, ptr %7, align 8
  %19 = call ptr @getFunctionList(ptr noundef %17, ptr noundef %18)
  store ptr %19, ptr %16, align 8
  %20 = load ptr, ptr %16, align 8
  %21 = icmp eq ptr %20, null
  br i1 %21, label %22, label %23

22:                                               ; preds = %4
  store ptr null, ptr %5, align 8
  br label %53

23:                                               ; preds = %4
  %24 = load i64, ptr %8, align 8
  store i64 %24, ptr %11, align 8
  %25 = load i64, ptr %9, align 8
  store i64 %25, ptr %12, align 8
  %26 = load i64, ptr %12, align 8
  %27 = mul i64 8, %26
  %28 = call noalias ptr @malloc(i64 noundef %27) #5
  store ptr %28, ptr %13, align 8
  %29 = load ptr, ptr %13, align 8
  %30 = icmp eq ptr %29, null
  br i1 %30, label %31, label %33

31:                                               ; preds = %23
  %32 = load ptr, ptr %6, align 8
  call void @p11ThrowOutOfMemoryError(ptr noundef %32, ptr noundef null)
  store ptr null, ptr %5, align 8
  br label %53

33:                                               ; preds = %23
  %34 = load ptr, ptr %16, align 8
  %35 = getelementptr inbounds %struct.CK_FUNCTION_LIST, ptr %34, i32 0, i32 28
  %36 = load ptr, ptr %35, align 8
  %37 = load i64, ptr %11, align 8
  %38 = load ptr, ptr %13, align 8
  %39 = load i64, ptr %12, align 8
  %40 = call i64 %36(i64 noundef %37, ptr noundef %38, i64 noundef %39, ptr noundef %14)
  store i64 %40, ptr %10, align 8
  %41 = load ptr, ptr %6, align 8
  %42 = load i64, ptr %10, align 8
  %43 = call i64 @ckAssertReturnValueOK(ptr noundef %41, i64 noundef %42)
  %44 = icmp eq i64 %43, 0
  br i1 %44, label %45, label %50

45:                                               ; preds = %33
  %46 = load ptr, ptr %6, align 8
  %47 = load ptr, ptr %13, align 8
  %48 = load i64, ptr %14, align 8
  %49 = call ptr @ckULongArrayToJLongArray(ptr noundef %46, ptr noundef %47, i64 noundef %48)
  store ptr %49, ptr %15, align 8
  br label %50

50:                                               ; preds = %45, %33
  %51 = load ptr, ptr %13, align 8
  call void @free(ptr noundef %51) #4
  %52 = load ptr, ptr %15, align 8
  store ptr %52, ptr %5, align 8
  br label %53

53:                                               ; preds = %50, %31, %22
  %54 = load ptr, ptr %5, align 8
  ret ptr %54
}