; Function Attrs: nounwind uwtable
define ptr @Java_sun_security_pkcs11_wrapper_PKCS11_C_1FindObjects(ptr noundef %0, ptr noundef %1, i64 noundef %2, i64 noundef %3) local_unnamed_addr #0 {
  %5 = alloca i64, align 8
  %6 = tail call ptr @getFunctionList(ptr noundef %0, ptr noundef %1) #5
  %7 = icmp eq ptr %6, null
  br i1 %7, label %23, label %8

8:                                                ; preds = %4
  %9 = shl i64 %3, 3
  %10 = tail call noalias ptr @malloc(i64 noundef %9) #6
  %11 = icmp eq ptr %10, null
  br i1 %11, label %12, label %13

12:                                               ; preds = %8
  tail call void @p11ThrowOutOfMemoryError(ptr noundef %0, ptr noundef null) #5
  br label %23

13:                                               ; preds = %8
  %14 = getelementptr inbounds i8, ptr %6, i64 224
  %15 = load ptr, ptr %14, align 8
  %16 = call i64 %15(i64 noundef %2, ptr noundef nonnull %10, i64 noundef %3, ptr noundef nonnull %5) #5
  %17 = call i64 @ckAssertReturnValueOK(ptr noundef %0, i64 noundef %16) #5
  %18 = icmp eq i64 %17, 0
  br i1 %18, label %19, label %22

19:                                               ; preds = %13
  %20 = load i64, ptr %5, align 8
  %21 = call ptr @ckULongArrayToJLongArray(ptr noundef %0, ptr noundef nonnull %10, i64 noundef %20) #5
  br label %22

22:                                               ; preds = %19, %13
  %.018 = phi ptr [ %21, %19 ], [ null, %13 ]
  call void @free(ptr noundef nonnull %10) #5
  br label %23

23:                                               ; preds = %4, %22, %12
  %.0 = phi ptr [ null, %12 ], [ %.018, %22 ], [ null, %4 ]
  ret ptr %.0
}